#include <math.h>
#include <stdio.h>
#include <stdlib.h>
#include <string.h>


int a[21];
void cal()
{
     a[0]=1;
     a[1]=1;
     for(int i=2;i<=20;i++)
     a[i]=a[i-1]+a[i-2];
 }
int main()
{
    int t;
    scanf("%d",&t);
    cal();
    while(t--)
    {
        int n;
        scanf("%d",&n);
        printf("%d\n",a[n-1]);
    }
    
    return 0;
}
