; ModuleID = '61/449.c'
source_filename = "61/449.c"
target datalayout = "e-m:e-p270:32:32-p271:32:32-p272:64:64-i64:64-f80:128-n8:16:32:64-S128"
target triple = "x86_64-pc-linux-gnu"

@a = common dso_local global [21 x i32] zeroinitializer, align 16
@.str = private unnamed_addr constant [3 x i8] c"%d\00", align 1
@.str.1 = private unnamed_addr constant [4 x i8] c"%d\0A\00", align 1

; Function Attrs: noinline nounwind uwtable
define dso_local void @cal() #0 {
  %1 = alloca i32, align 4
  store i32 1, i32* getelementptr inbounds ([21 x i32], [21 x i32]* @a, i64 0, i64 0), align 16
  store i32 1, i32* getelementptr inbounds ([21 x i32], [21 x i32]* @a, i64 0, i64 1), align 4
  store i32 2, i32* %1, align 4
  br label %2

2:                                                ; preds = %20, %0
  %3 = load i32, i32* %1, align 4
  %4 = icmp sle i32 %3, 20
  br i1 %4, label %5, label %23

5:                                                ; preds = %2
  %6 = load i32, i32* %1, align 4
  %7 = sub nsw i32 %6, 1
  %8 = sext i32 %7 to i64
  %9 = getelementptr inbounds [21 x i32], [21 x i32]* @a, i64 0, i64 %8
  %10 = load i32, i32* %9, align 4
  %11 = load i32, i32* %1, align 4
  %12 = sub nsw i32 %11, 2
  %13 = sext i32 %12 to i64
  %14 = getelementptr inbounds [21 x i32], [21 x i32]* @a, i64 0, i64 %13
  %15 = load i32, i32* %14, align 4
  %16 = add nsw i32 %10, %15
  %17 = load i32, i32* %1, align 4
  %18 = sext i32 %17 to i64
  %19 = getelementptr inbounds [21 x i32], [21 x i32]* @a, i64 0, i64 %18
  store i32 %16, i32* %19, align 4
  br label %20

20:                                               ; preds = %5
  %21 = load i32, i32* %1, align 4
  %22 = add nsw i32 %21, 1
  store i32 %22, i32* %1, align 4
  br label %2

23:                                               ; preds = %2
  ret void
}

; Function Attrs: noinline nounwind uwtable
define dso_local i32 @main() #0 {
  %1 = alloca i32, align 4
  %2 = alloca i32, align 4
  %3 = alloca i32, align 4
  store i32 0, i32* %1, align 4
  %4 = call i32 (i8*, ...) @__isoc99_scanf(i8* getelementptr inbounds ([3 x i8], [3 x i8]* @.str, i64 0, i64 0), i32* %2)
  call void @cal()
  br label %5

5:                                                ; preds = %9, %0
  %6 = load i32, i32* %2, align 4
  %7 = add nsw i32 %6, -1
  store i32 %7, i32* %2, align 4
  %8 = icmp ne i32 %6, 0
  br i1 %8, label %9, label %17

9:                                                ; preds = %5
  %10 = call i32 (i8*, ...) @__isoc99_scanf(i8* getelementptr inbounds ([3 x i8], [3 x i8]* @.str, i64 0, i64 0), i32* %3)
  %11 = load i32, i32* %3, align 4
  %12 = sub nsw i32 %11, 1
  %13 = sext i32 %12 to i64
  %14 = getelementptr inbounds [21 x i32], [21 x i32]* @a, i64 0, i64 %13
  %15 = load i32, i32* %14, align 4
  %16 = call i32 (i8*, ...) @printf(i8* getelementptr inbounds ([4 x i8], [4 x i8]* @.str.1, i64 0, i64 0), i32 %15)
  br label %5

17:                                               ; preds = %5
  ret i32 0
}

declare dso_local i32 @__isoc99_scanf(i8*, ...) #1

declare dso_local i32 @printf(i8*, ...) #1


!llvm.module.flags = !{!0}
!llvm.ident = !{!1}

!0 = !{i32 1, !"wchar_size", i32 4}
!1 = !{!"clang version 10.0.0-4ubuntu1 "}
